; Function Attrs: mustprogress nofree norecurse nosync nounwind willreturn memory(argmem: read) uwtable
define dso_local noundef ptr @_ZNK5clang15OMPDependClause11getLoopDataEj(ptr noundef nonnull readonly align 8 captures(none) dereferenceable(40) %0, i32 noundef %1) local_unnamed_addr #3 align 2 {
_ZSt4nextIPKPKN5clang4ExprEET_S6_NSt15iterator_traitsIS6_E15difference_typeE.exit:
  %2 = getelementptr inbounds nuw i8, ptr %0, i64 40
  %3 = getelementptr inbounds nuw i8, ptr %0, i64 16
  %4 = load i32, ptr %3, align 8
  %5 = zext i32 %4 to i64
  %6 = getelementptr inbounds nuw ptr, ptr %2, i64 %5
  %7 = add i32 %1, 1
  %8 = zext i32 %7 to i64
  %9 = getelementptr inbounds nuw ptr, ptr %6, i64 %8
  %10 = load ptr, ptr %9, align 8
  ret ptr %10
}